target datalayout = "e-m:e-p270:32:32-p271:32:32-p272:64:64-i64:64-i128:128-f80:128-n8:16:32:64-S128"
target triple = "x86_64-pc-linux-gnu"

%union.pthread_mutex_t = type { %struct.__pthread_mutex_s }
%struct.__pthread_mutex_s = type { i32, i32, i32, i32, i32, i16, i16, %struct.__pthread_internal_list }
%struct.__pthread_internal_list = type { ptr, ptr }
%struct.cli_filter_ops = type { ptr, ptr, ptr }
%struct.timeval = type { i64, i64 }

@g_context_lock = internal global %union.pthread_mutex_t zeroinitializer, align 8
@.str.1 = private unnamed_addr constant [29 x i8] c"%s: pthread_mutex_lock(): %m\00", align 1
@g_context_cnt = internal global i32 -1, align 4
@ops = internal global ptr null, align 8
@.str.7 = private unnamed_addr constant [31 x i8] c"%s: pthread_mutex_unlock(): %m\00", align 1
@__func__.cli_filter_g_post_submit = private unnamed_addr constant [25 x i8] c"cli_filter_g_post_submit\00", align 1

; Function Attrs: nounwind uwtable
define dso_local void @cli_filter_g_post_submit(i32 noundef %0, i32 noundef %1, i32 noundef %2) #0 {
  %4 = alloca i32, align 4
  %5 = alloca i32, align 4
  %6 = alloca i32, align 4
  %7 = alloca %struct.timeval, align 8
  %8 = alloca %struct.timeval, align 8
  %9 = alloca [20 x i8], align 16
  %10 = alloca i64, align 8
  %11 = alloca i32, align 4
  %12 = alloca i32, align 4
  %13 = alloca i32, align 4
  %14 = alloca i32, align 4
  %15 = alloca i32, align 4
  store i32 %0, ptr %4, align 4
  store i32 %1, ptr %5, align 4
  store i32 %2, ptr %6, align 4
  call void @llvm.lifetime.start.p0(i64 16, ptr %7) #7
  call void @llvm.lifetime.start.p0(i64 16, ptr %8) #7
  call void @llvm.lifetime.start.p0(i64 20, ptr %9) #7
  call void @llvm.memset.p0.i64(ptr align 16 %9, i8 0, i64 20, i1 false)
  call void @llvm.lifetime.start.p0(i64 8, ptr %10) #7
  call void @llvm.lifetime.start.p0(i64 4, ptr %11) #7
  call void @llvm.lifetime.start.p0(i64 4, ptr %12) #7
  store i32 0, ptr %12, align 4
  %16 = call i32 @gettimeofday(ptr noundef %7, ptr noundef null) #7
  %17 = load i32, ptr @g_context_cnt, align 4
  %18 = icmp ne i32 %17, 0
  br i1 %18, label %20, label %19

19:                                               ; preds = %3
  store i32 1, ptr %13, align 4
  br label %69

20:                                               ; preds = %3
  br label %21

21:                                               ; preds = %20
  call void @llvm.lifetime.start.p0(i64 4, ptr %14) #7
  %22 = call i32 @pthread_mutex_lock(ptr noundef @g_context_lock) #7
  store i32 %22, ptr %14, align 4
  %23 = load i32, ptr %14, align 4
  %24 = icmp ne i32 %23, 0
  br i1 %24, label %25, label %28

25:                                               ; preds = %21
  %26 = load i32, ptr %14, align 4
  %27 = call ptr @__errno_location() #8
  store i32 %26, ptr %27, align 4
  call void (ptr, ...) @fatal_abort(ptr noundef @.str.1, ptr noundef @__func__.cli_filter_g_post_submit) #9
  unreachable

28:                                               ; preds = %21
  call void @llvm.lifetime.end.p0(i64 4, ptr %14) #7
  br label %29

29:                                               ; preds = %28
  br label %30

30:                                               ; preds = %29
  store i32 0, ptr %11, align 4
  br label %31

31:                                               ; preds = %50, %30
  %32 = load i32, ptr %11, align 4
  %33 = load i32, ptr @g_context_cnt, align 4
  %34 = icmp slt i32 %32, %33
  br i1 %34, label %35, label %38

35:                                               ; preds = %31
  %36 = load i32, ptr %12, align 4
  %37 = icmp eq i32 %36, 0
  br label %38

38:                                               ; preds = %35, %31
  %39 = phi i1 [ false, %31 ], [ %37, %35 ]
  br i1 %39, label %40, label %53

40:                                               ; preds = %38
  %41 = load ptr, ptr @ops, align 8
  %42 = load i32, ptr %11, align 4
  %43 = sext i32 %42 to i64
  %44 = getelementptr inbounds %struct.cli_filter_ops, ptr %41, i64 %43
  %45 = getelementptr inbounds nuw %struct.cli_filter_ops, ptr %44, i32 0, i32 2
  %46 = load ptr, ptr %45, align 8
  %47 = load i32, ptr %4, align 4
  %48 = load i32, ptr %5, align 4
  %49 = load i32, ptr %6, align 4
  call void %46(i32 noundef %47, i32 noundef %48, i32 noundef %49)
  br label %50

50:                                               ; preds = %40
  %51 = load i32, ptr %11, align 4
  %52 = add nsw i32 %51, 1
  store i32 %52, ptr %11, align 4
  br label %31, !llvm.loop !16

53:                                               ; preds = %38
  br label %54

54:                                               ; preds = %53
  call void @llvm.lifetime.start.p0(i64 4, ptr %15) #7
  %55 = call i32 @pthread_mutex_unlock(ptr noundef @g_context_lock) #7
  store i32 %55, ptr %15, align 4
  %56 = load i32, ptr %15, align 4
  %57 = icmp ne i32 %56, 0
  br i1 %57, label %58, label %61

58:                                               ; preds = %54
  %59 = load i32, ptr %15, align 4
  %60 = call ptr @__errno_location() #8
  store i32 %59, ptr %60, align 4
  call void (ptr, ...) @fatal_abort(ptr noundef @.str.7, ptr noundef @__func__.cli_filter_g_post_submit) #9
  unreachable

61:                                               ; preds = %54
  call void @llvm.lifetime.end.p0(i64 4, ptr %15) #7
  br label %62

62:                                               ; preds = %61
  br label %63

63:                                               ; preds = %62
  br label %64

64:                                               ; preds = %63
  %65 = call i32 @gettimeofday(ptr noundef %8, ptr noundef null) #7
  %66 = getelementptr inbounds [20 x i8], ptr %9, i64 0, i64 0
  call void @slurm_diff_tv_str(ptr noundef %7, ptr noundef %8, ptr noundef %66, i32 noundef 20, ptr noundef @__func__.cli_filter_g_post_submit, i64 noundef 0, ptr noundef %10)
  br label %67

67:                                               ; preds = %64
  br label %68

68:                                               ; preds = %67
  store i32 0, ptr %13, align 4
  br label %69

69:                                               ; preds = %68, %19
  call void @llvm.lifetime.end.p0(i64 4, ptr %12) #7
  call void @llvm.lifetime.end.p0(i64 4, ptr %11) #7
  call void @llvm.lifetime.end.p0(i64 8, ptr %10) #7
  call void @llvm.lifetime.end.p0(i64 20, ptr %9) #7
  call void @llvm.lifetime.end.p0(i64 16, ptr %8) #7
  call void @llvm.lifetime.end.p0(i64 16, ptr %7) #7
  %70 = load i32, ptr %13, align 4
  switch i32 %70, label %72 [
    i32 0, label %71
    i32 1, label %71
  ]

71:                                               ; preds = %69, %69
  ret void

72:                                               ; preds = %69
  unreachable
}