; Function Attrs: nounwind uwtable
define dso_local void @cli_filter_g_post_submit(i32 noundef %0, i32 noundef %1, i32 noundef %2) local_unnamed_addr #0 {
  %4 = alloca %struct.timeval, align 8
  %5 = alloca %struct.timeval, align 8
  %6 = alloca [20 x i8], align 16
  %7 = alloca i64, align 8
  call void @llvm.lifetime.start.p0(i64 16, ptr nonnull %4) #9
  call void @llvm.lifetime.start.p0(i64 16, ptr nonnull %5) #9
  call void @llvm.lifetime.start.p0(i64 20, ptr nonnull %6) #9
  call void @llvm.memset.p0.i64(ptr noundef nonnull align 16 dereferenceable(20) %6, i8 0, i64 20, i1 false)
  call void @llvm.lifetime.start.p0(i64 8, ptr nonnull %7) #9
  %8 = call i32 @gettimeofday(ptr noundef nonnull %4, ptr noundef null) #9
  %9 = load i32, ptr @g_context_cnt, align 4
  %.not = icmp eq i32 %9, 0
  br i1 %.not, label %27, label %10

10:                                               ; preds = %3
  %11 = tail call i32 @pthread_mutex_lock(ptr noundef nonnull @g_context_lock) #9
  %.not13 = icmp eq i32 %11, 0
  br i1 %.not13, label %.preheader, label %14

.preheader:                                       ; preds = %10
  %12 = load i32, ptr @g_context_cnt, align 4
  %13 = icmp sgt i32 %12, 0
  br i1 %13, label %.lr.ph, label %._crit_edge

14:                                               ; preds = %10
  %15 = tail call ptr @__errno_location() #10
  store i32 %11, ptr %15, align 4
  tail call void (ptr, ...) @fatal_abort(ptr noundef nonnull @.str.1, ptr noundef nonnull @__func__.cli_filter_g_post_submit) #11
  unreachable

.lr.ph:                                           ; preds = %.preheader, %.lr.ph
  %indvars.iv = phi i64 [ %indvars.iv.next, %.lr.ph ], [ 0, %.preheader ]
  %16 = load ptr, ptr @ops, align 8
  %17 = getelementptr inbounds nuw %struct.cli_filter_ops, ptr %16, i64 %indvars.iv, i32 2
  %18 = load ptr, ptr %17, align 8
  tail call void %18(i32 noundef %0, i32 noundef %1, i32 noundef %2) #9
  %indvars.iv.next = add nuw nsw i64 %indvars.iv, 1
  %19 = load i32, ptr @g_context_cnt, align 4
  %20 = sext i32 %19 to i64
  %21 = icmp slt i64 %indvars.iv.next, %20
  br i1 %21, label %.lr.ph, label %._crit_edge, !llvm.loop !14

._crit_edge:                                      ; preds = %.lr.ph, %.preheader
  %22 = tail call i32 @pthread_mutex_unlock(ptr noundef nonnull @g_context_lock) #9
  %.not14 = icmp eq i32 %22, 0
  br i1 %.not14, label %25, label %23

23:                                               ; preds = %._crit_edge
  %24 = tail call ptr @__errno_location() #10
  store i32 %22, ptr %24, align 4
  tail call void (ptr, ...) @fatal_abort(ptr noundef nonnull @.str.7, ptr noundef nonnull @__func__.cli_filter_g_post_submit) #11
  unreachable

25:                                               ; preds = %._crit_edge
  %26 = call i32 @gettimeofday(ptr noundef nonnull %5, ptr noundef null) #9
  call void @slurm_diff_tv_str(ptr noundef nonnull %4, ptr noundef nonnull %5, ptr noundef nonnull %6, i32 noundef 20, ptr noundef nonnull @__func__.cli_filter_g_post_submit, i64 noundef 0, ptr noundef nonnull %7) #9
  br label %27

27:                                               ; preds = %3, %25
  call void @llvm.lifetime.end.p0(i64 8, ptr nonnull %7) #9
  call void @llvm.lifetime.end.p0(i64 20, ptr nonnull %6) #9
  call void @llvm.lifetime.end.p0(i64 16, ptr nonnull %5) #9
  call void @llvm.lifetime.end.p0(i64 16, ptr nonnull %4) #9
  ret void
}